; Function Attrs: mustprogress nofree norecurse nosync nounwind willreturn memory(argmem: write) uwtable
define void @_ZN32pxrInternal_v0_24__pxrReserved__19HgiVertexBufferDescC2Ev(ptr nocapture noundef nonnull writeonly align 8 dereferenceable(40) %0) unnamed_addr #0 align 2 {
  store i32 0, ptr %0, align 8
  %2 = getelementptr inbounds nuw i8, ptr %0, i64 8
  tail call void @llvm.memset.p0.i64(ptr noundef nonnull align 8 dereferenceable(24) %2, i8 0, i64 24, i1 false)
  %3 = getelementptr inbounds nuw i8, ptr %0, i64 32
  store i32 1, ptr %3, align 8
  %4 = getelementptr inbounds nuw i8, ptr %0, i64 36
  store i32 0, ptr %4, align 4
  ret void
}